
vulnerablenew:	file format ELF64-x86-64

Disassembly of section .init:
_init:
  400520:	48 83 ec 08 	subq	$8, %rsp
  400524:	48 8b 05 cd 0a 20 00 	movq	2099917(%rip), %rax
  40052b:	48 85 c0 	testq	%rax, %rax
  40052e:	74 02 	je	2 <_init+0x12>
  400530:	ff d0 	callq	*%rax
  400532:	48 83 c4 08 	addq	$8, %rsp
  400536:	c3 	retq
Disassembly of section .plt:
.plt:
  400540:	ff 35 c2 0a 20 00 	pushq	2099906(%rip)
  400546:	ff 25 c4 0a 20 00 	jmpq	*2099908(%rip)
  40054c:	0f 1f 40 00 	nopl	(%rax)

getenv@plt:
  400550:	ff 25 c2 0a 20 00 	jmpq	*2099906(%rip)
  400556:	68 00 00 00 00 	pushq	$0
  40055b:	e9 e0 ff ff ff 	jmp	-32 <.plt>

puts@plt:
  400560:	ff 25 ba 0a 20 00 	jmpq	*2099898(%rip)
  400566:	68 01 00 00 00 	pushq	$1
  40056b:	e9 d0 ff ff ff 	jmp	-48 <.plt>

printf@plt:
  400570:	ff 25 b2 0a 20 00 	jmpq	*2099890(%rip)
  400576:	68 02 00 00 00 	pushq	$2
  40057b:	e9 c0 ff ff ff 	jmp	-64 <.plt>

memset@plt:
  400580:	ff 25 aa 0a 20 00 	jmpq	*2099882(%rip)
  400586:	68 03 00 00 00 	pushq	$3
  40058b:	e9 b0 ff ff ff 	jmp	-80 <.plt>

fgetc@plt:
  400590:	ff 25 a2 0a 20 00 	jmpq	*2099874(%rip)
  400596:	68 04 00 00 00 	pushq	$4
  40059b:	e9 a0 ff ff ff 	jmp	-96 <.plt>

exit@plt:
  4005a0:	ff 25 9a 0a 20 00 	jmpq	*2099866(%rip)
  4005a6:	68 05 00 00 00 	pushq	$5
  4005ab:	e9 90 ff ff ff 	jmp	-112 <.plt>
Disassembly of section .text:
_start:
  4005b0:	31 ed 	xorl	%ebp, %ebp
  4005b2:	49 89 d1 	movq	%rdx, %r9
  4005b5:	5e 	popq	%rsi
  4005b6:	48 89 e2 	movq	%rsp, %rdx
  4005b9:	48 83 e4 f0 	andq	$-16, %rsp
  4005bd:	50 	pushq	%rax
  4005be:	54 	pushq	%rsp
  4005bf:	49 c7 c0 f0 07 40 00 	movq	$4196336, %r8
  4005c6:	48 c7 c1 80 07 40 00 	movq	$4196224, %rcx
  4005cd:	48 c7 c7 10 07 40 00 	movq	$4196112, %rdi
  4005d4:	ff 15 16 0a 20 00 	callq	*2099734(%rip)
  4005da:	f4 	hlt
  4005db:	0f 1f 44 00 00 	nopl	(%rax,%rax)

deregister_tm_clones:
  4005e0:	b8 5f 10 60 00 	movl	$6295647, %eax
  4005e5:	55 	pushq	%rbp
  4005e6:	48 2d 58 10 60 00 	subq	$6295640, %rax
  4005ec:	48 83 f8 0e 	cmpq	$14, %rax
  4005f0:	48 89 e5 	movq	%rsp, %rbp
  4005f3:	76 1b 	jbe	27 <deregister_tm_clones+0x30>
  4005f5:	b8 00 00 00 00 	movl	$0, %eax
  4005fa:	48 85 c0 	testq	%rax, %rax
  4005fd:	74 11 	je	17 <deregister_tm_clones+0x30>
  4005ff:	5d 	popq	%rbp
  400600:	bf 58 10 60 00 	movl	$6295640, %edi
  400605:	ff e0 	jmpq	*%rax
  400607:	66 0f 1f 84 00 00 00 00 00 	nopw	(%rax,%rax)
  400610:	5d 	popq	%rbp
  400611:	c3 	retq
  400612:	0f 1f 40 00 	nopl	(%rax)
  400616:	66 2e 0f 1f 84 00 00 00 00 00 	nopw	%cs:(%rax,%rax)

register_tm_clones:
  400620:	be 58 10 60 00 	movl	$6295640, %esi
  400625:	55 	pushq	%rbp
  400626:	48 81 ee 58 10 60 00 	subq	$6295640, %rsi
  40062d:	48 c1 fe 03 	sarq	$3, %rsi
  400631:	48 89 e5 	movq	%rsp, %rbp
  400634:	48 89 f0 	movq	%rsi, %rax
  400637:	48 c1 e8 3f 	shrq	$63, %rax
  40063b:	48 01 c6 	addq	%rax, %rsi
  40063e:	48 d1 fe 	sarq	%rsi
  400641:	74 15 	je	21 <register_tm_clones+0x38>
  400643:	b8 00 00 00 00 	movl	$0, %eax
  400648:	48 85 c0 	testq	%rax, %rax
  40064b:	74 0b 	je	11 <register_tm_clones+0x38>
  40064d:	5d 	popq	%rbp
  40064e:	bf 58 10 60 00 	movl	$6295640, %edi
  400653:	ff e0 	jmpq	*%rax
  400655:	0f 1f 00 	nopl	(%rax)
  400658:	5d 	popq	%rbp
  400659:	c3 	retq
  40065a:	66 0f 1f 44 00 00 	nopw	(%rax,%rax)

__do_global_dtors_aux:
  400660:	80 3d 01 0a 20 00 00 	cmpb	$0, 2099713(%rip)
  400667:	75 11 	jne	17 <__do_global_dtors_aux+0x1a>
  400669:	55 	pushq	%rbp
  40066a:	48 89 e5 	movq	%rsp, %rbp
  40066d:	e8 6e ff ff ff 	callq	-146 <deregister_tm_clones>
  400672:	5d 	popq	%rbp
  400673:	c6 05 ee 09 20 00 01 	movb	$1, 2099694(%rip)
  40067a:	f3 c3 	rep		retq
  40067c:	0f 1f 40 00 	nopl	(%rax)

frame_dummy:
  400680:	bf 18 0e 60 00 	movl	$6295064, %edi
  400685:	48 83 3f 00 	cmpq	$0, (%rdi)
  400689:	75 05 	jne	5 <frame_dummy+0x10>
  40068b:	eb 93 	jmp	-109 <register_tm_clones>
  40068d:	0f 1f 00 	nopl	(%rax)
  400690:	b8 00 00 00 00 	movl	$0, %eax
  400695:	48 85 c0 	testq	%rax, %rax
  400698:	74 f1 	je	-15 <frame_dummy+0xb>
  40069a:	55 	pushq	%rbp
  40069b:	48 89 e5 	movq	%rsp, %rbp
  40069e:	ff d0 	callq	*%rax
  4006a0:	5d 	popq	%rbp
  4006a1:	e9 7a ff ff ff 	jmp	-134 <register_tm_clones>

read_all_stdin:
  4006a6:	55 	pushq	%rbp
  4006a7:	48 89 e5 	movq	%rsp, %rbp
  4006aa:	48 83 ec 20 	subq	$32, %rsp
  4006ae:	48 89 7d e8 	movq	%rdi, -24(%rbp)
  4006b2:	c7 45 fc 00 00 00 00 	movl	$0, -4(%rbp)
  4006b9:	eb 18 	jmp	24 <read_all_stdin+0x2d>
  4006bb:	8b 45 fc 	movl	-4(%rbp), %eax
  4006be:	8d 50 01 	leal	1(%rax), %edx
  4006c1:	89 55 fc 	movl	%edx, -4(%rbp)
  4006c4:	48 63 d0 	movslq	%eax, %rdx
  4006c7:	48 8b 45 e8 	movq	-24(%rbp), %rax
  4006cb:	48 01 d0 	addq	%rdx, %rax
  4006ce:	8b 55 f8 	movl	-8(%rbp), %edx
  4006d1:	88 10 	movb	%dl, (%rax)
  4006d3:	48 8b 05 86 09 20 00 	movq	2099590(%rip), %rax
  4006da:	48 89 c7 	movq	%rax, %rdi
  4006dd:	e8 ae fe ff ff 	callq	-338 <fgetc@plt>
  4006e2:	89 45 f8 	movl	%eax, -8(%rbp)
  4006e5:	83 7d f8 ff 	cmpl	$-1, -8(%rbp)
  4006e9:	75 d0 	jne	-48 <read_all_stdin+0x15>
  4006eb:	90 	nop
  4006ec:	c9 	leave
  4006ed:	c3 	retq

print_flags:
  4006ee:	55 	pushq	%rbp
  4006ef:	48 89 e5 	movq	%rsp, %rbp
  4006f2:	48 8d 3d 0b 01 00 00 	leaq	267(%rip), %rdi
  4006f9:	e8 52 fe ff ff 	callq	-430 <getenv@plt>
  4006fe:	48 89 c7 	movq	%rax, %rdi
  400701:	e8 5a fe ff ff 	callq	-422 <puts@plt>
  400706:	bf 00 00 00 00 	movl	$0, %edi
  40070b:	e8 90 fe ff ff 	callq	-368 <exit@plt>

main:
  400710:	55 	pushq	%rbp
  400711:	48 89 e5 	movq	%rsp, %rbp
  400714:	48 83 ec 20 	subq	$32, %rsp
  400718:	48 8d 45 e0 	leaq	-32(%rbp), %rax
  40071c:	ba 20 00 00 00 	movl	$32, %edx
  400721:	be 00 00 00 00 	movl	$0, %esi
  400726:	48 89 c7 	movq	%rax, %rdi
  400729:	e8 52 fe ff ff 	callq	-430 <memset@plt>
  40072e:	48 8d 45 e0 	leaq	-32(%rbp), %rax
  400732:	48 89 c7 	movq	%rax, %rdi
  400735:	e8 6c ff ff ff 	callq	-148 <read_all_stdin>
  40073a:	48 8d 45 e0 	leaq	-32(%rbp), %rax
  40073e:	0f b6 00 	movzbl	(%rax), %eax
  400741:	84 c0 	testb	%al, %al
  400743:	75 0e 	jne	14 <main+0x43>
  400745:	48 8d 3d be 00 00 00 	leaq	190(%rip), %rdi
  40074c:	e8 0f fe ff ff 	callq	-497 <puts@plt>
  400751:	eb 18 	jmp	24 <main+0x5b>
  400753:	48 8d 45 e0 	leaq	-32(%rbp), %rax
  400757:	48 89 c6 	movq	%rax, %rsi
  40075a:	48 8d 3d bc 00 00 00 	leaq	188(%rip), %rdi
  400761:	b8 00 00 00 00 	movl	$0, %eax
  400766:	e8 05 fe ff ff 	callq	-507 <printf@plt>
  40076b:	b8 00 00 00 00 	movl	$0, %eax
  400770:	c9 	leave
  400771:	c3 	retq
  400772:	66 2e 0f 1f 84 00 00 00 00 00 	nopw	%cs:(%rax,%rax)
  40077c:	0f 1f 40 00 	nopl	(%rax)

__libc_csu_init:
  400780:	41 57 	pushq	%r15
  400782:	41 56 	pushq	%r14
  400784:	41 89 ff 	movl	%edi, %r15d
  400787:	41 55 	pushq	%r13
  400789:	41 54 	pushq	%r12
  40078b:	4c 8d 25 76 06 20 00 	leaq	2098806(%rip), %r12
  400792:	55 	pushq	%rbp
  400793:	48 8d 2d 76 06 20 00 	leaq	2098806(%rip), %rbp
  40079a:	53 	pushq	%rbx
  40079b:	49 89 f6 	movq	%rsi, %r14
  40079e:	49 89 d5 	movq	%rdx, %r13
  4007a1:	4c 29 e5 	subq	%r12, %rbp
  4007a4:	48 83 ec 08 	subq	$8, %rsp
  4007a8:	48 c1 fd 03 	sarq	$3, %rbp
  4007ac:	e8 6f fd ff ff 	callq	-657 <_init>
  4007b1:	48 85 ed 	testq	%rbp, %rbp
  4007b4:	74 20 	je	32 <__libc_csu_init+0x56>
  4007b6:	31 db 	xorl	%ebx, %ebx
  4007b8:	0f 1f 84 00 00 00 00 00 	nopl	(%rax,%rax)
  4007c0:	4c 89 ea 	movq	%r13, %rdx
  4007c3:	4c 89 f6 	movq	%r14, %rsi
  4007c6:	44 89 ff 	movl	%r15d, %edi
  4007c9:	41 ff 14 dc 	callq	*(%r12,%rbx,8)
  4007cd:	48 83 c3 01 	addq	$1, %rbx
  4007d1:	48 39 dd 	cmpq	%rbx, %rbp
  4007d4:	75 ea 	jne	-22 <__libc_csu_init+0x40>
  4007d6:	48 83 c4 08 	addq	$8, %rsp
  4007da:	5b 	popq	%rbx
  4007db:	5d 	popq	%rbp
  4007dc:	41 5c 	popq	%r12
  4007de:	41 5d 	popq	%r13
  4007e0:	41 5e 	popq	%r14
  4007e2:	41 5f 	popq	%r15
  4007e4:	c3 	retq
  4007e5:	90 	nop
  4007e6:	66 2e 0f 1f 84 00 00 00 00 00 	nopw	%cs:(%rax,%rax)

__libc_csu_fini:
  4007f0:	f3 c3 	rep		retq
Disassembly of section .fini:
_fini:
  4007f4:	48 83 ec 08 	subq	$8, %rsp
  4007f8:	48 83 c4 08 	addq	$8, %rsp
  4007fc:	c3 	retq